; Function Attrs: mustprogress nofree norecurse nosync nounwind willreturn memory(read, inaccessiblemem: none) uwtable
define dso_local noundef ptr @_ZNK4llvm31DWARFAbbreviationDeclarationSet26getAbbreviationDeclarationEj(ptr nocapture noundef nonnull readonly align 8 dereferenceable(40) %0, i32 noundef %1) local_unnamed_addr #4 align 2 {
  %3 = getelementptr inbounds nuw i8, ptr %0, i64 8
  %4 = load i32, ptr %3, align 8
  %5 = icmp eq i32 %4, -1
  br i1 %5, label %6, label %15

6:                                                ; preds = %2
  %7 = getelementptr inbounds nuw i8, ptr %0, i64 16
  %8 = load ptr, ptr %7, align 8
  %9 = getelementptr inbounds i8, ptr %0, i64 24
  %10 = load ptr, ptr %9, align 8
  %.not1415 = icmp eq ptr %8, %10
  br i1 %.not1415, label %.loopexit, label %.lr.ph

.lr.ph:                                           ; preds = %6, %13
  %.sroa.011.016 = phi ptr [ %14, %13 ], [ %8, %6 ]
  %11 = load i32, ptr %.sroa.011.016, align 8
  %12 = icmp eq i32 %11, %1
  br i1 %12, label %.loopexit, label %13

13:                                               ; preds = %.lr.ph
  %14 = getelementptr inbounds i8, ptr %.sroa.011.016, i64 160
  %.not14 = icmp eq ptr %14, %10
  br i1 %.not14, label %.loopexit, label %.lr.ph

15:                                               ; preds = %2
  %16 = icmp ult i32 %1, %4
  br i1 %16, label %.loopexit, label %17

17:                                               ; preds = %15
  %18 = zext i32 %1 to i64
  %19 = zext i32 %4 to i64
  %20 = getelementptr inbounds nuw i8, ptr %0, i64 16
  %21 = getelementptr inbounds i8, ptr %0, i64 24
  %22 = load ptr, ptr %21, align 8
  %23 = load ptr, ptr %20, align 8
  %24 = ptrtoint ptr %22 to i64
  %25 = ptrtoint ptr %23 to i64
  %26 = sub i64 %24, %25
  %27 = sdiv exact i64 %26, 160
  %28 = add nsw i64 %27, %19
  %.not = icmp ugt i64 %28, %18
  br i1 %.not, label %29, label %.loopexit

29:                                               ; preds = %17
  %30 = sub i32 %1, %4
  %31 = zext i32 %30 to i64
  %32 = getelementptr inbounds %"class.llvm::DWARFAbbreviationDeclaration", ptr %23, i64 %31
  br label %.loopexit

.loopexit:                                        ; preds = %.lr.ph, %13, %6, %15, %17, %29
  %.0 = phi ptr [ %32, %29 ], [ null, %17 ], [ null, %15 ], [ null, %6 ], [ %.sroa.011.016, %.lr.ph ], [ null, %13 ]
  ret ptr %.0
}